
merge4.o:     file format elf32-littleriscv


Disassembly of section .text:

00000000 <main>:
   0:	fe010113          	addi	sp,sp,-32
   4:	00112e23          	sw	ra,28(sp)
   8:	00812c23          	sw	s0,24(sp)
   c:	02010413          	addi	s0,sp,32
  10:	000007b7          	lui	a5,0x0
  14:	00078793          	mv	a5,a5
  18:	0007a603          	lw	a2,0(a5) # 0 <main>
  1c:	0047a683          	lw	a3,4(a5)
  20:	0087a703          	lw	a4,8(a5)
  24:	00c7a783          	lw	a5,12(a5)
  28:	fec42023          	sw	a2,-32(s0)
  2c:	fed42223          	sw	a3,-28(s0)
  30:	fee42423          	sw	a4,-24(s0)
  34:	fef42623          	sw	a5,-20(s0)
  38:	fe040793          	addi	a5,s0,-32
  3c:	00300613          	li	a2,3
  40:	00000593          	li	a1,0
  44:	00078513          	mv	a0,a5
  48:	00000097          	auipc	ra,0x0
  4c:	000080e7          	jalr	ra # 48 <main+0x48>
  50:	00000793          	li	a5,0
  54:	00078513          	mv	a0,a5
  58:	01c12083          	lw	ra,28(sp)
  5c:	01812403          	lw	s0,24(sp)
  60:	02010113          	addi	sp,sp,32
  64:	00008067          	ret

00000068 <merge>:
  68:	fa010113          	addi	sp,sp,-96
  6c:	04812e23          	sw	s0,92(sp)
  70:	05212c23          	sw	s2,88(sp)
  74:	05312a23          	sw	s3,84(sp)
  78:	05412823          	sw	s4,80(sp)
  7c:	05512623          	sw	s5,76(sp)
  80:	05612423          	sw	s6,72(sp)
  84:	05712223          	sw	s7,68(sp)
  88:	06010413          	addi	s0,sp,96
  8c:	faa42623          	sw	a0,-84(s0)
  90:	fab42423          	sw	a1,-88(s0)
  94:	fac42223          	sw	a2,-92(s0)
  98:	fad42023          	sw	a3,-96(s0)
  9c:	00010693          	mv	a3,sp
  a0:	00068593          	mv	a1,a3
  a4:	fa442603          	lw	a2,-92(s0)
  a8:	fa842683          	lw	a3,-88(s0)
  ac:	40d606b3          	sub	a3,a2,a3
  b0:	00168693          	addi	a3,a3,1
  b4:	fcd42823          	sw	a3,-48(s0)
  b8:	fa042603          	lw	a2,-96(s0)
  bc:	fa442683          	lw	a3,-92(s0)
  c0:	40d606b3          	sub	a3,a2,a3
  c4:	fcd42623          	sw	a3,-52(s0)
  c8:	fd042683          	lw	a3,-48(s0)
  cc:	fff68613          	addi	a2,a3,-1
  d0:	fcc42423          	sw	a2,-56(s0)
  d4:	00068613          	mv	a2,a3
  d8:	00060b13          	mv	s6,a2
  dc:	00000b93          	li	s7,0
  e0:	01bb5613          	srli	a2,s6,0x1b
  e4:	005b9e93          	slli	t4,s7,0x5
  e8:	01d66eb3          	or	t4,a2,t4
  ec:	005b1e13          	slli	t3,s6,0x5
  f0:	00068613          	mv	a2,a3
  f4:	00060a13          	mv	s4,a2
  f8:	00000a93          	li	s5,0
  fc:	01ba5613          	srli	a2,s4,0x1b
 100:	005a9393          	slli	t2,s5,0x5
 104:	007663b3          	or	t2,a2,t2
 108:	005a1313          	slli	t1,s4,0x5
 10c:	00269693          	slli	a3,a3,0x2
 110:	00f68693          	addi	a3,a3,15
 114:	0046d693          	srli	a3,a3,0x4
 118:	00469693          	slli	a3,a3,0x4
 11c:	40d10133          	sub	sp,sp,a3
 120:	00010693          	mv	a3,sp
 124:	00368693          	addi	a3,a3,3
 128:	0026d693          	srli	a3,a3,0x2
 12c:	00269693          	slli	a3,a3,0x2
 130:	fcd42223          	sw	a3,-60(s0)
 134:	fcc42683          	lw	a3,-52(s0)
 138:	fff68613          	addi	a2,a3,-1
 13c:	fcc42023          	sw	a2,-64(s0)
 140:	00068613          	mv	a2,a3
 144:	00060913          	mv	s2,a2
 148:	00000993          	li	s3,0
 14c:	01b95613          	srli	a2,s2,0x1b
 150:	00599893          	slli	a7,s3,0x5
 154:	011668b3          	or	a7,a2,a7
 158:	00591813          	slli	a6,s2,0x5
 15c:	00068613          	mv	a2,a3
 160:	00060f13          	mv	t5,a2
 164:	00000f93          	li	t6,0
 168:	01bf5613          	srli	a2,t5,0x1b
 16c:	005f9793          	slli	a5,t6,0x5
 170:	00f667b3          	or	a5,a2,a5
 174:	005f1713          	slli	a4,t5,0x5
 178:	00068793          	mv	a5,a3
 17c:	00279793          	slli	a5,a5,0x2
 180:	00f78793          	addi	a5,a5,15
 184:	0047d793          	srli	a5,a5,0x4
 188:	00479793          	slli	a5,a5,0x4
 18c:	40f10133          	sub	sp,sp,a5
 190:	00010793          	mv	a5,sp
 194:	00378793          	addi	a5,a5,3
 198:	0027d793          	srli	a5,a5,0x2
 19c:	00279793          	slli	a5,a5,0x2
 1a0:	faf42e23          	sw	a5,-68(s0)
 1a4:	fc042a23          	sw	zero,-44(s0)
 1a8:	0400006f          	j	1e8 <.L4>

000001ac <.L5>:
 1ac:	fa842703          	lw	a4,-88(s0)
 1b0:	fd442783          	lw	a5,-44(s0)
 1b4:	00f707b3          	add	a5,a4,a5
 1b8:	00279793          	slli	a5,a5,0x2
 1bc:	fac42703          	lw	a4,-84(s0)
 1c0:	00f707b3          	add	a5,a4,a5
 1c4:	0007a703          	lw	a4,0(a5)
 1c8:	fc442683          	lw	a3,-60(s0)
 1cc:	fd442783          	lw	a5,-44(s0)
 1d0:	00279793          	slli	a5,a5,0x2
 1d4:	00f687b3          	add	a5,a3,a5
 1d8:	00e7a023          	sw	a4,0(a5)
 1dc:	fd442783          	lw	a5,-44(s0)
 1e0:	00178793          	addi	a5,a5,1
 1e4:	fcf42a23          	sw	a5,-44(s0)

000001e8 <.L4>:
 1e8:	fd442703          	lw	a4,-44(s0)
 1ec:	fd042783          	lw	a5,-48(s0)
 1f0:	faf74ee3          	blt	a4,a5,1ac <.L5>
 1f4:	fc042c23          	sw	zero,-40(s0)
 1f8:	0440006f          	j	23c <.L6>

000001fc <.L7>:
 1fc:	fa442783          	lw	a5,-92(s0)
 200:	00178713          	addi	a4,a5,1
 204:	fd842783          	lw	a5,-40(s0)
 208:	00f707b3          	add	a5,a4,a5
 20c:	00279793          	slli	a5,a5,0x2
 210:	fac42703          	lw	a4,-84(s0)
 214:	00f707b3          	add	a5,a4,a5
 218:	0007a703          	lw	a4,0(a5)
 21c:	fbc42683          	lw	a3,-68(s0)
 220:	fd842783          	lw	a5,-40(s0)
 224:	00279793          	slli	a5,a5,0x2
 228:	00f687b3          	add	a5,a3,a5
 22c:	00e7a023          	sw	a4,0(a5)
 230:	fd842783          	lw	a5,-40(s0)
 234:	00178793          	addi	a5,a5,1
 238:	fcf42c23          	sw	a5,-40(s0)

0000023c <.L6>:
 23c:	fd842703          	lw	a4,-40(s0)
 240:	fcc42783          	lw	a5,-52(s0)
 244:	faf74ce3          	blt	a4,a5,1fc <.L7>
 248:	fc042a23          	sw	zero,-44(s0)
 24c:	fc042c23          	sw	zero,-40(s0)
 250:	fa842783          	lw	a5,-88(s0)
 254:	fcf42e23          	sw	a5,-36(s0)
 258:	0a40006f          	j	2fc <.L8>

0000025c <.L11>:
 25c:	fc442703          	lw	a4,-60(s0)
 260:	fd442783          	lw	a5,-44(s0)
 264:	00279793          	slli	a5,a5,0x2
 268:	00f707b3          	add	a5,a4,a5
 26c:	0007a703          	lw	a4,0(a5)
 270:	fbc42683          	lw	a3,-68(s0)
 274:	fd842783          	lw	a5,-40(s0)
 278:	00279793          	slli	a5,a5,0x2
 27c:	00f687b3          	add	a5,a3,a5
 280:	0007a783          	lw	a5,0(a5)
 284:	04e7c063          	blt	a5,a4,2c4 <.L9>
 288:	fd442783          	lw	a5,-44(s0)
 28c:	00178713          	addi	a4,a5,1
 290:	fce42a23          	sw	a4,-44(s0)
 294:	fdc42703          	lw	a4,-36(s0)
 298:	00170693          	addi	a3,a4,1
 29c:	fcd42e23          	sw	a3,-36(s0)
 2a0:	00271713          	slli	a4,a4,0x2
 2a4:	fac42683          	lw	a3,-84(s0)
 2a8:	00e68733          	add	a4,a3,a4
 2ac:	fc442683          	lw	a3,-60(s0)
 2b0:	00279793          	slli	a5,a5,0x2
 2b4:	00f687b3          	add	a5,a3,a5
 2b8:	0007a783          	lw	a5,0(a5)
 2bc:	00f72023          	sw	a5,0(a4)
 2c0:	03c0006f          	j	2fc <.L8>

000002c4 <.L9>:
 2c4:	fd842783          	lw	a5,-40(s0)
 2c8:	00178713          	addi	a4,a5,1
 2cc:	fce42c23          	sw	a4,-40(s0)
 2d0:	fdc42703          	lw	a4,-36(s0)
 2d4:	00170693          	addi	a3,a4,1
 2d8:	fcd42e23          	sw	a3,-36(s0)
 2dc:	00271713          	slli	a4,a4,0x2
 2e0:	fac42683          	lw	a3,-84(s0)
 2e4:	00e68733          	add	a4,a3,a4
 2e8:	fbc42683          	lw	a3,-68(s0)
 2ec:	00279793          	slli	a5,a5,0x2
 2f0:	00f687b3          	add	a5,a3,a5
 2f4:	0007a783          	lw	a5,0(a5)
 2f8:	00f72023          	sw	a5,0(a4)

000002fc <.L8>:
 2fc:	fd442703          	lw	a4,-44(s0)
 300:	fd042783          	lw	a5,-48(s0)
 304:	04f75663          	bge	a4,a5,350 <.L12>
 308:	fd842703          	lw	a4,-40(s0)
 30c:	fcc42783          	lw	a5,-52(s0)
 310:	f4f746e3          	blt	a4,a5,25c <.L11>
 314:	03c0006f          	j	350 <.L12>

00000318 <.L13>:
 318:	fd442783          	lw	a5,-44(s0)
 31c:	00178713          	addi	a4,a5,1
 320:	fce42a23          	sw	a4,-44(s0)
 324:	fdc42703          	lw	a4,-36(s0)
 328:	00170693          	addi	a3,a4,1
 32c:	fcd42e23          	sw	a3,-36(s0)
 330:	00271713          	slli	a4,a4,0x2
 334:	fac42683          	lw	a3,-84(s0)
 338:	00e68733          	add	a4,a3,a4
 33c:	fc442683          	lw	a3,-60(s0)
 340:	00279793          	slli	a5,a5,0x2
 344:	00f687b3          	add	a5,a3,a5
 348:	0007a783          	lw	a5,0(a5)
 34c:	00f72023          	sw	a5,0(a4)

00000350 <.L12>:
 350:	fd442703          	lw	a4,-44(s0)
 354:	fd042783          	lw	a5,-48(s0)
 358:	fcf740e3          	blt	a4,a5,318 <.L13>
 35c:	03c0006f          	j	398 <.L14>

00000360 <.L15>:
 360:	fd842783          	lw	a5,-40(s0)
 364:	00178713          	addi	a4,a5,1
 368:	fce42c23          	sw	a4,-40(s0)
 36c:	fdc42703          	lw	a4,-36(s0)
 370:	00170693          	addi	a3,a4,1
 374:	fcd42e23          	sw	a3,-36(s0)
 378:	00271713          	slli	a4,a4,0x2
 37c:	fac42683          	lw	a3,-84(s0)
 380:	00e68733          	add	a4,a3,a4
 384:	fbc42683          	lw	a3,-68(s0)
 388:	00279793          	slli	a5,a5,0x2
 38c:	00f687b3          	add	a5,a3,a5
 390:	0007a783          	lw	a5,0(a5)
 394:	00f72023          	sw	a5,0(a4)

00000398 <.L14>:
 398:	fd842703          	lw	a4,-40(s0)
 39c:	fcc42783          	lw	a5,-52(s0)
 3a0:	fcf740e3          	blt	a4,a5,360 <.L15>
 3a4:	00058113          	mv	sp,a1
 3a8:	00000013          	nop
 3ac:	fa040113          	addi	sp,s0,-96
 3b0:	05c12403          	lw	s0,92(sp)
 3b4:	05812903          	lw	s2,88(sp)
 3b8:	05412983          	lw	s3,84(sp)
 3bc:	05012a03          	lw	s4,80(sp)
 3c0:	04c12a83          	lw	s5,76(sp)
 3c4:	04812b03          	lw	s6,72(sp)
 3c8:	04412b83          	lw	s7,68(sp)
 3cc:	06010113          	addi	sp,sp,96
 3d0:	00008067          	ret

000003d4 <mergesort>:
 3d4:	fd010113          	addi	sp,sp,-48
 3d8:	02112623          	sw	ra,44(sp)
 3dc:	02812423          	sw	s0,40(sp)
 3e0:	03010413          	addi	s0,sp,48
 3e4:	fca42e23          	sw	a0,-36(s0)
 3e8:	fcb42c23          	sw	a1,-40(s0)
 3ec:	fcc42a23          	sw	a2,-44(s0)
 3f0:	fd842703          	lw	a4,-40(s0)
 3f4:	fd442783          	lw	a5,-44(s0)
 3f8:	06f75a63          	bge	a4,a5,46c <.L18>
 3fc:	fd442703          	lw	a4,-44(s0)
 400:	fd842783          	lw	a5,-40(s0)
 404:	40f707b3          	sub	a5,a4,a5
 408:	01f7d713          	srli	a4,a5,0x1f
 40c:	00f707b3          	add	a5,a4,a5
 410:	4017d793          	srai	a5,a5,0x1
 414:	00078713          	mv	a4,a5
 418:	fd842783          	lw	a5,-40(s0)
 41c:	00e787b3          	add	a5,a5,a4
 420:	fef42623          	sw	a5,-20(s0)
 424:	fec42603          	lw	a2,-20(s0)
 428:	fd842583          	lw	a1,-40(s0)
 42c:	fdc42503          	lw	a0,-36(s0)
 430:	00000097          	auipc	ra,0x0
 434:	000080e7          	jalr	ra # 430 <mergesort+0x5c>
 438:	fec42783          	lw	a5,-20(s0)
 43c:	00178793          	addi	a5,a5,1
 440:	fd442603          	lw	a2,-44(s0)
 444:	00078593          	mv	a1,a5
 448:	fdc42503          	lw	a0,-36(s0)
 44c:	00000097          	auipc	ra,0x0
 450:	000080e7          	jalr	ra # 44c <mergesort+0x78>
 454:	fd442683          	lw	a3,-44(s0)
 458:	fec42603          	lw	a2,-20(s0)
 45c:	fd842583          	lw	a1,-40(s0)
 460:	fdc42503          	lw	a0,-36(s0)
 464:	00000097          	auipc	ra,0x0
 468:	000080e7          	jalr	ra # 464 <mergesort+0x90>

0000046c <.L18>:
 46c:	00000013          	nop
 470:	02c12083          	lw	ra,44(sp)
 474:	02812403          	lw	s0,40(sp)
 478:	03010113          	addi	sp,sp,48
 47c:	00008067          	ret
